; Function Attrs: mustprogress uwtable
define noundef zeroext i1 @_ZN10MainWindow6saveAsE7QStringb(ptr noundef nonnull align 8 dereferenceable(1376) %0, ptr nocapture noundef readonly %1, i1 noundef zeroext %2) local_unnamed_addr #9 align 2 personality ptr @__gxx_personality_v0 {
  %4 = alloca %class.QString, align 8
  %5 = load ptr, ptr %1, align 8
  store ptr %5, ptr %4, align 8
  %6 = load atomic i32, ptr %5 monotonic, align 4
  %7 = add i32 %6, -1
  %or.cond.not.i.i = icmp ult i32 %7, -2
  br i1 %or.cond.not.i.i, label %8, label %_ZN7QStringC2ERKS_.exit

8:                                                ; preds = %3
  %9 = atomicrmw add ptr %5, i32 1 seq_cst, align 4
  br label %_ZN7QStringC2ERKS_.exit

_ZN7QStringC2ERKS_.exit:                          ; preds = %3, %8
  %10 = getelementptr inbounds i8, ptr %0, i64 1368
  %11 = load ptr, ptr %10, align 8
  %.not.i = icmp eq ptr %11, null
  %12 = getelementptr inbounds i8, ptr %11, i64 48
  %spec.select.i = select i1 %.not.i, ptr null, ptr %12
  %13 = invoke noundef ptr @_ZN12MeshDocument2mmEv(ptr noundef nonnull align 8 dereferenceable(192) %spec.select.i)
          to label %14 unwind label %21

14:                                               ; preds = %_ZN7QStringC2ERKS_.exit
  %15 = invoke noundef zeroext i1 @_ZN10MainWindow10exportMeshE7QStringP9MeshModelb(ptr noundef nonnull align 8 dereferenceable(1376) %0, ptr noundef nonnull %4, ptr noundef %13, i1 noundef zeroext %2)
          to label %16 unwind label %21

16:                                               ; preds = %14
  %17 = load ptr, ptr %4, align 8
  %18 = load atomic i32, ptr %17 monotonic, align 4
  switch i32 %18, label %_ZN9QtPrivate8RefCount5derefEv.exit.i [
    i32 0, label %_ZN9QtPrivate8RefCount5derefEv.exit.thread2.i
    i32 -1, label %_ZN7QStringD2Ev.exit
  ]

_ZN9QtPrivate8RefCount5derefEv.exit.i:            ; preds = %16
  %19 = atomicrmw sub ptr %17, i32 1 seq_cst, align 4
  %.not.i3 = icmp eq i32 %19, 1
  br i1 %.not.i3, label %_ZN9QtPrivate8RefCount5derefEv.exit._ZN9QtPrivate8RefCount5derefEv.exit.thread2_crit_edge.i, label %_ZN7QStringD2Ev.exit

_ZN9QtPrivate8RefCount5derefEv.exit._ZN9QtPrivate8RefCount5derefEv.exit.thread2_crit_edge.i: ; preds = %_ZN9QtPrivate8RefCount5derefEv.exit.i
  %.pre.i = load ptr, ptr %4, align 8
  br label %_ZN9QtPrivate8RefCount5derefEv.exit.thread2.i

_ZN9QtPrivate8RefCount5derefEv.exit.thread2.i:    ; preds = %_ZN9QtPrivate8RefCount5derefEv.exit._ZN9QtPrivate8RefCount5derefEv.exit.thread2_crit_edge.i, %16
  %20 = phi ptr [ %.pre.i, %_ZN9QtPrivate8RefCount5derefEv.exit._ZN9QtPrivate8RefCount5derefEv.exit.thread2_crit_edge.i ], [ %17, %16 ]
  call void @_ZN10QArrayData10deallocateEPS_mm(ptr noundef %20, i64 noundef 2, i64 noundef 8) #26
  br label %_ZN7QStringD2Ev.exit

_ZN7QStringD2Ev.exit:                             ; preds = %16, %_ZN9QtPrivate8RefCount5derefEv.exit.i, %_ZN9QtPrivate8RefCount5derefEv.exit.thread2.i
  ret i1 %15

21:                                               ; preds = %14, %_ZN7QStringC2ERKS_.exit
  %22 = landingpad { ptr, i32 }
          cleanup
  call void @_ZN7QStringD2Ev(ptr noundef nonnull align 8 dereferenceable(8) %4) #26
  resume { ptr, i32 } %22
}